Certificate:
    Data:
        Version: 3 (0x2)
        Serial Number:
            d4:26:ec:ba:db:a4:62:b9
        Signature Algorithm: ecdsa-with-SHA256
        Issuer: C=KR, O=Open Source Consulting Inc, OU=PlayceKube ROOT CA
        Validity
            Not Before: Apr  4 06:58:45 2022 GMT
            Not After : Apr  1 06:58:45 2032 GMT
        Subject: C=KR, CN=linkerd2-issuer
        Subject Public Key Info:
            Public Key Algorithm: id-ecPublicKey
                Public-Key: (256 bit)
                pub:
                    04:46:5c:3c:3c:6c:b3:51:ef:19:c5:53:ce:e3:8b:
                    67:d7:f0:87:30:28:4d:94:a5:6b:bf:df:b9:e3:c1:
                    10:70:7b:23:b0:a4:4d:6e:6b:55:ad:eb:16:8c:92:
                    b4:9b:fa:7b:f8:cc:18:f7:89:9e:42:0c:6d:51:39:
                    a4:06:4d:00:3d
                ASN1 OID: prime256v1
                NIST CURVE: P-256
        X509v3 extensions:
            X509v3 Subject Key Identifier: 
                A1:23:02:9E:3F:F4:70:53:9D:0E:C6:7E:70:C8:C9:48:F4:E4:A5:92
            X509v3 Authority Key Identifier: 
                keyid:A5:7F:81:40:61:C3:B8:C3:F3:B7:28:52:FB:F9:CA:55:DA:5D:0C:21

            X509v3 Basic Constraints: critical
                CA:TRUE, pathlen:0
            X509v3 Key Usage: critical
                Digital Signature, Certificate Sign, CRL Sign
    Signature Algorithm: ecdsa-with-SHA256
         30:45:02:20:4f:e5:04:6f:09:bf:fd:d5:be:7f:0b:4f:50:c3:
         1a:2a:1b:d5:83:14:1a:47:c1:56:2b:23:c7:a1:08:bb:c2:6a:
         02:21:00:87:69:21:1f:9d:4f:0f:ec:b5:cd:29:1d:63:7c:d1:
         ac:dd:76:18:1f:e4:06:f8:68:c7:17:0e:5a:dc:b1:29:68
-----BEGIN CERTIFICATE-----
MIIB0zCCAXmgAwIBAgIJANQm7LrbpGK5MAoGCCqGSM49BAMCME8xCzAJBgNVBAYT
AktSMSMwIQYDVQQKDBpPcGVuIFNvdXJjZSBDb25zdWx0aW5nIEluYzEbMBkGA1UE
CwwSUGxheWNlS3ViZSBST09UIENBMB4XDTIyMDQwNDA2NTg0NVoXDTMyMDQwMTA2
NTg0NVowJzELMAkGA1UEBhMCS1IxGDAWBgNVBAMMD2xpbmtlcmQyLWlzc3VlcjBZ
MBMGByqGSM49AgEGCCqGSM49AwEHA0IABEZcPDxss1HvGcVTzuOLZ9fwhzAoTZSl
a7/fuePBEHB7I7CkTW5rVa3rFoyStJv6e/jMGPeJnkIMbVE5pAZNAD2jZjBkMB0G
A1UdDgQWBBShIwKeP/RwU50Oxn5wyMlI9OSlkjAfBgNVHSMEGDAWgBSlf4FAYcO4
w/O3KFL7+cpV2l0MITASBgNVHRMBAf8ECDAGAQH/AgEAMA4GA1UdDwEB/wQEAwIB
hjAKBggqhkjOPQQDAgNIADBFAiBP5QRvCb/91b5/C09QwxoqG9WDFBpHwVYrI8eh
CLvCagIhAIdpIR+dTw/stc0pHWN80azddhgf5Ab4aMcXDlrcsSlo
-----END CERTIFICATE-----
