Certificate:
    Data:
        Version: 3 (0x2)
        Serial Number:
            d4:26:ec:ba:db:a4:62:cd
        Signature Algorithm: ecdsa-with-SHA256
        Issuer: C=KR, O=Open Source Consulting Inc, OU=PlayceKube ROOT CA
        Validity
            Not Before: Apr  4 09:44:27 2022 GMT
            Not After : Apr  1 09:44:27 2032 GMT
        Subject: C=KR, CN=linkerd2-issuer
        Subject Public Key Info:
            Public Key Algorithm: id-ecPublicKey
                Public-Key: (256 bit)
                pub:
                    04:6b:1d:46:04:9f:83:b1:a3:24:9a:9c:4f:94:2f:
                    d5:48:92:8a:28:c7:53:c9:85:c1:80:8e:e3:94:6d:
                    79:c1:ec:c9:03:f0:93:65:d3:d0:39:1e:46:c8:9d:
                    27:27:4a:2c:90:15:e2:4a:03:b4:5e:d4:ff:63:88:
                    6f:d8:b2:d6:fc
                ASN1 OID: prime256v1
                NIST CURVE: P-256
        X509v3 extensions:
            X509v3 Subject Key Identifier: 
                D2:9C:D6:87:AA:04:BC:58:46:03:B6:D0:FB:65:32:E6:FA:DB:26:03
            X509v3 Authority Key Identifier: 
                keyid:DC:99:34:C5:12:0D:C2:B9:89:01:61:72:93:AE:89:CD:CA:0F:66:2E

            X509v3 Basic Constraints: critical
                CA:TRUE, pathlen:0
            X509v3 Key Usage: critical
                Digital Signature, Certificate Sign, CRL Sign
    Signature Algorithm: ecdsa-with-SHA256
         30:46:02:21:00:e3:e9:5d:d9:5d:16:f1:99:4b:82:cf:0f:10:
         bc:43:5b:05:2e:12:8b:fe:8e:28:a9:57:be:3a:18:16:28:d4:
         ec:02:21:00:ca:cd:6b:65:f1:c1:99:6f:1e:73:13:e1:cb:3e:
         d5:27:b7:a4:ba:3a:32:5d:95:4b:ba:cc:c6:52:e4:7e:03:b2
-----BEGIN CERTIFICATE-----
MIIB1DCCAXmgAwIBAgIJANQm7LrbpGLNMAoGCCqGSM49BAMCME8xCzAJBgNVBAYT
AktSMSMwIQYDVQQKDBpPcGVuIFNvdXJjZSBDb25zdWx0aW5nIEluYzEbMBkGA1UE
CwwSUGxheWNlS3ViZSBST09UIENBMB4XDTIyMDQwNDA5NDQyN1oXDTMyMDQwMTA5
NDQyN1owJzELMAkGA1UEBhMCS1IxGDAWBgNVBAMMD2xpbmtlcmQyLWlzc3VlcjBZ
MBMGByqGSM49AgEGCCqGSM49AwEHA0IABGsdRgSfg7GjJJqcT5Qv1UiSiijHU8mF
wYCO45RtecHsyQPwk2XT0DkeRsidJydKLJAV4koDtF7U/2OIb9iy1vyjZjBkMB0G
A1UdDgQWBBTSnNaHqgS8WEYDttD7ZTLm+tsmAzAfBgNVHSMEGDAWgBTcmTTFEg3C
uYkBYXKTronNyg9mLjASBgNVHRMBAf8ECDAGAQH/AgEAMA4GA1UdDwEB/wQEAwIB
hjAKBggqhkjOPQQDAgNJADBGAiEA4+ld2V0W8ZlLgs8PELxDWwUuEov+jiipV746
GBYo1OwCIQDKzWtl8cGZbx5zE+HLPtUnt6S6OjJdlUu6zMZS5H4Dsg==
-----END CERTIFICATE-----
