Certificate:
    Data:
        Version: 3 (0x2)
        Serial Number:
            d4:26:ec:ba:db:a4:62:c7
        Signature Algorithm: sha256WithRSAEncryption
        Issuer: C=KR, O=Open Source Consulting Inc, OU=PlayceKube ROOT CA
        Validity
            Not Before: Apr  4 07:36:30 2022 GMT
            Not After : Apr  1 07:36:30 2032 GMT
        Subject: C=KR, CN=linkerd2-issuer
        Subject Public Key Info:
            Public Key Algorithm: id-ecPublicKey
                Public-Key: (256 bit)
                pub:
                    04:7f:10:21:fc:3a:ce:7b:cd:b6:e4:63:3c:96:9e:
                    ad:66:0d:fe:ef:61:6c:9e:5b:f5:4f:88:6d:a2:e8:
                    8b:26:ae:33:33:39:97:a2:33:d7:49:d5:c2:23:0e:
                    54:be:8a:bf:ec:5a:c7:9f:f8:ec:b2:ee:ea:52:b2:
                    6d:af:08:13:67
                ASN1 OID: prime256v1
                NIST CURVE: P-256
        X509v3 extensions:
            X509v3 Subject Key Identifier: 
                CC:19:EA:AA:35:04:CD:15:34:37:5D:6C:D8:7B:CA:94:04:C2:05:3B
            X509v3 Authority Key Identifier: 
                keyid:31:4D:A1:08:9A:6A:C9:BA:7A:37:8D:80:62:D6:74:E5:7D:7F:F5:00

            X509v3 Basic Constraints: critical
                CA:TRUE, pathlen:0
            X509v3 Key Usage: critical
                Digital Signature, Certificate Sign, CRL Sign
    Signature Algorithm: sha256WithRSAEncryption
         19:46:35:90:ce:8a:39:85:c4:46:9e:a2:42:08:a2:50:60:fe:
         fc:1d:08:2f:ac:9e:0c:64:90:c3:66:45:01:a9:d6:6f:93:ba:
         9c:3a:4d:02:60:e5:f0:c2:ab:7f:aa:8b:f3:e1:48:6b:67:c8:
         78:5c:79:15:bc:f4:aa:21:02:d9:a0:bb:24:02:38:81:be:02:
         da:22:ec:13:6d:19:79:ca:48:66:6d:28:0e:fa:2e:33:cd:52:
         84:3b:65:9a:da:29:85:9a:e2:2f:58:47:fc:d7:25:39:84:85:
         d5:52:86:cd:ad:b5:43:da:2b:01:a6:63:88:99:0a:71:47:92:
         c2:dc:da:df:3d:39:21:50:3d:23:f9:e4:cb:e3:b0:87:40:ac:
         98:65:08:ea:33:7e:5b:fc:3c:44:ea:a9:44:de:ef:46:75:c0:
         ff:7d:44:e9:6b:61:c5:5f:16:85:58:97:c5:2f:91:ac:c4:a6:
         23:9c:65:e8:03:b5:8c:53:19:0d:6d:be:1e:65:5a:04:d4:ed:
         05:55:50:84:1b:26:18:17:8b:3b:b8:6b:98:65:f1:50:e5:9c:
         11:c6:4f:39:09:10:88:58:12:63:24:1f:36:0e:6f:7c:ac:d5:
         72:08:3b:bb:cd:a6:8a:f7:32:7c:63:7d:bc:bd:f3:cb:74:b8:
         7f:86:24:b4
-----BEGIN CERTIFICATE-----
MIIClDCCAXygAwIBAgIJANQm7LrbpGLHMA0GCSqGSIb3DQEBCwUAME8xCzAJBgNV
BAYTAktSMSMwIQYDVQQKDBpPcGVuIFNvdXJjZSBDb25zdWx0aW5nIEluYzEbMBkG
A1UECwwSUGxheWNlS3ViZSBST09UIENBMB4XDTIyMDQwNDA3MzYzMFoXDTMyMDQw
MTA3MzYzMFowJzELMAkGA1UEBhMCS1IxGDAWBgNVBAMMD2xpbmtlcmQyLWlzc3Vl
cjBZMBMGByqGSM49AgEGCCqGSM49AwEHA0IABH8QIfw6znvNtuRjPJaerWYN/u9h
bJ5b9U+IbaLoiyauMzM5l6Iz10nVwiMOVL6Kv+xax5/47LLu6lKyba8IE2ejZjBk
MB0GA1UdDgQWBBTMGeqqNQTNFTQ3XWzYe8qUBMIFOzAfBgNVHSMEGDAWgBQxTaEI
mmrJuno3jYBi1nTlfX/1ADASBgNVHRMBAf8ECDAGAQH/AgEAMA4GA1UdDwEB/wQE
AwIBhjANBgkqhkiG9w0BAQsFAAOCAQEAGUY1kM6KOYXERp6iQgiiUGD+/B0IL6ye
DGSQw2ZFAanWb5O6nDpNAmDl8MKrf6qL8+FIa2fIeFx5Fbz0qiEC2aC7JAI4gb4C
2iLsE20ZecpIZm0oDvouM81ShDtlmtophZriL1hH/NclOYSF1VKGza21Q9orAaZj
iJkKcUeSwtza3z05IVA9I/nky+Owh0CsmGUI6jN+W/w8ROqpRN7vRnXA/31E6Wth
xV8WhViXxS+RrMSmI5xl6AO1jFMZDW2+HmVaBNTtBVVQhBsmGBeLO7hrmGXxUOWc
EcZPOQkQiFgSYyQfNg5vfKzVcgg7u82mivcyfGN9vL3zy3S4f4YktA==
-----END CERTIFICATE-----
