Certificate:
    Data:
        Version: 3 (0x2)
        Serial Number:
            d4:26:ec:ba:db:a4:62:ca
        Signature Algorithm: ecdsa-with-SHA256
        Issuer: C=KR, O=Open Source Consulting Inc, OU=PlayceKube ROOT CA
        Validity
            Not Before: Apr  4 08:26:18 2022 GMT
            Not After : Apr  1 08:26:18 2032 GMT
        Subject: C=KR, CN=linkerd2-issuer
        Subject Public Key Info:
            Public Key Algorithm: id-ecPublicKey
                Public-Key: (256 bit)
                pub:
                    04:22:57:57:86:33:d5:88:9c:45:b6:08:e5:06:e4:
                    54:98:06:b4:05:f8:ec:26:4b:17:62:2b:b6:77:0b:
                    0e:2e:47:39:b0:32:7c:5b:f0:db:d3:c4:29:80:7d:
                    db:17:25:ef:71:f3:60:18:23:5c:37:fe:ca:59:26:
                    04:ce:8f:e5:40
                ASN1 OID: prime256v1
                NIST CURVE: P-256
        X509v3 extensions:
            X509v3 Subject Key Identifier: 
                9C:CD:00:F4:7D:1E:F8:90:E9:61:B3:B6:10:BD:C5:36:31:66:D5:40
            X509v3 Authority Key Identifier: 
                keyid:DC:99:34:C5:12:0D:C2:B9:89:01:61:72:93:AE:89:CD:CA:0F:66:2E

            X509v3 Basic Constraints: critical
                CA:TRUE, pathlen:0
            X509v3 Key Usage: critical
                Digital Signature, Certificate Sign, CRL Sign
    Signature Algorithm: ecdsa-with-SHA256
         30:45:02:21:00:fe:3b:67:16:49:18:b8:a8:af:21:48:5e:a9:
         33:c5:47:82:72:62:e4:d6:04:6b:e5:61:b0:fb:04:41:e9:d7:
         7b:02:20:2a:74:ec:e4:29:e4:1d:b5:64:29:f0:9d:a6:59:d1:
         7e:f2:e9:62:49:09:06:aa:10:90:c9:26:fd:4b:26:42:48
-----BEGIN CERTIFICATE-----
MIIB0zCCAXmgAwIBAgIJANQm7LrbpGLKMAoGCCqGSM49BAMCME8xCzAJBgNVBAYT
AktSMSMwIQYDVQQKDBpPcGVuIFNvdXJjZSBDb25zdWx0aW5nIEluYzEbMBkGA1UE
CwwSUGxheWNlS3ViZSBST09UIENBMB4XDTIyMDQwNDA4MjYxOFoXDTMyMDQwMTA4
MjYxOFowJzELMAkGA1UEBhMCS1IxGDAWBgNVBAMMD2xpbmtlcmQyLWlzc3VlcjBZ
MBMGByqGSM49AgEGCCqGSM49AwEHA0IABCJXV4Yz1YicRbYI5QbkVJgGtAX47CZL
F2IrtncLDi5HObAyfFvw29PEKYB92xcl73HzYBgjXDf+ylkmBM6P5UCjZjBkMB0G
A1UdDgQWBBSczQD0fR74kOlhs7YQvcU2MWbVQDAfBgNVHSMEGDAWgBTcmTTFEg3C
uYkBYXKTronNyg9mLjASBgNVHRMBAf8ECDAGAQH/AgEAMA4GA1UdDwEB/wQEAwIB
hjAKBggqhkjOPQQDAgNIADBFAiEA/jtnFkkYuKivIUheqTPFR4JyYuTWBGvlYbD7
BEHp13sCICp07OQp5B21ZCnwnaZZ0X7y6WJJCQaqEJDJJv1LJkJI
-----END CERTIFICATE-----
