Certificate:
    Data:
        Version: 3 (0x2)
        Serial Number:
            d4:26:ec:ba:db:a4:62:b6
        Signature Algorithm: ecdsa-with-SHA256
        Issuer: C=KR, O=Open Source Consulting Inc, OU=PlayceKube ROOT CA
        Validity
            Not Before: Apr  4 06:57:03 2022 GMT
            Not After : Apr  1 06:57:03 2032 GMT
        Subject: C=KR, CN=linkerd2-issuer
        Subject Public Key Info:
            Public Key Algorithm: id-ecPublicKey
                Public-Key: (256 bit)
                pub:
                    04:d6:2e:ac:4e:72:ac:b5:8c:d0:68:4c:c3:12:9f:
                    ac:3d:14:0b:16:f1:ec:5d:34:4b:22:95:df:d5:ee:
                    97:cc:5c:a2:10:55:e0:1f:c9:06:2e:64:ff:c8:ba:
                    45:2a:22:a4:d6:cf:30:07:b6:6f:9d:ff:29:66:af:
                    80:6c:19:9f:16
                ASN1 OID: prime256v1
                NIST CURVE: P-256
        X509v3 extensions:
            X509v3 Subject Key Identifier: 
                33:E3:78:67:0E:0A:94:BA:DA:38:98:25:A2:99:B4:FD:E4:59:67:69
            X509v3 Authority Key Identifier: 
                keyid:A5:7F:81:40:61:C3:B8:C3:F3:B7:28:52:FB:F9:CA:55:DA:5D:0C:21

            X509v3 Basic Constraints: critical
                CA:TRUE, pathlen:0
            X509v3 Key Usage: critical
                Digital Signature, Certificate Sign, CRL Sign
    Signature Algorithm: ecdsa-with-SHA256
         30:45:02:21:00:f3:c9:5e:f4:d1:57:a4:a1:4c:5a:9e:2c:17:
         fe:fa:06:d3:6e:b8:26:47:54:0c:c9:54:f6:bd:37:54:d3:c6:
         21:02:20:52:c0:13:b5:e9:f5:51:ea:e0:5d:fb:b2:52:74:dc:
         4b:6d:57:b8:1b:1e:46:02:7b:3d:24:92:a0:a5:4c:1c:3c
-----BEGIN CERTIFICATE-----
MIIB0zCCAXmgAwIBAgIJANQm7LrbpGK2MAoGCCqGSM49BAMCME8xCzAJBgNVBAYT
AktSMSMwIQYDVQQKDBpPcGVuIFNvdXJjZSBDb25zdWx0aW5nIEluYzEbMBkGA1UE
CwwSUGxheWNlS3ViZSBST09UIENBMB4XDTIyMDQwNDA2NTcwM1oXDTMyMDQwMTA2
NTcwM1owJzELMAkGA1UEBhMCS1IxGDAWBgNVBAMMD2xpbmtlcmQyLWlzc3VlcjBZ
MBMGByqGSM49AgEGCCqGSM49AwEHA0IABNYurE5yrLWM0GhMwxKfrD0UCxbx7F00
SyKV39Xul8xcohBV4B/JBi5k/8i6RSoipNbPMAe2b53/KWavgGwZnxajZjBkMB0G
A1UdDgQWBBQz43hnDgqUuto4mCWimbT95FlnaTAfBgNVHSMEGDAWgBSlf4FAYcO4
w/O3KFL7+cpV2l0MITASBgNVHRMBAf8ECDAGAQH/AgEAMA4GA1UdDwEB/wQEAwIB
hjAKBggqhkjOPQQDAgNIADBFAiEA88le9NFXpKFMWp4sF/76BtNuuCZHVAzJVPa9
N1TTxiECIFLAE7Xp9VHq4F37slJ03EttV7gbHkYCez0kkqClTBw8
-----END CERTIFICATE-----
