Certificate:
    Data:
        Version: 3 (0x2)
        Serial Number:
            d4:26:ec:ba:db:a4:62:c8
        Signature Algorithm: ecdsa-with-SHA256
        Issuer: C=KR, O=Open Source Consulting Inc, OU=PlayceKube ROOT CA
        Validity
            Not Before: Apr  4 07:45:20 2022 GMT
            Not After : Apr  1 07:45:20 2032 GMT
        Subject: C=KR, CN=linkerd2-issuer
        Subject Public Key Info:
            Public Key Algorithm: id-ecPublicKey
                Public-Key: (256 bit)
                pub:
                    04:04:94:8a:f6:f2:79:a8:ad:28:47:d2:ec:57:4f:
                    e0:02:85:41:34:fb:94:a1:33:7e:f4:e5:43:7f:88:
                    8c:2f:aa:0e:e1:a5:0c:86:a5:8f:ec:09:de:47:10:
                    aa:61:00:8f:a4:dc:62:43:a6:e6:f5:f8:10:79:be:
                    57:fb:a7:29:54
                ASN1 OID: prime256v1
                NIST CURVE: P-256
        X509v3 extensions:
            X509v3 Subject Key Identifier: 
                49:C9:E3:93:1B:45:38:DF:67:94:4B:F1:8A:09:B3:B7:90:61:6D:F7
            X509v3 Authority Key Identifier: 
                keyid:DC:99:34:C5:12:0D:C2:B9:89:01:61:72:93:AE:89:CD:CA:0F:66:2E

            X509v3 Basic Constraints: critical
                CA:TRUE, pathlen:0
            X509v3 Key Usage: critical
                Digital Signature, Certificate Sign, CRL Sign
    Signature Algorithm: ecdsa-with-SHA256
         30:46:02:21:00:c9:23:9f:8e:38:39:63:ea:f3:2f:fa:fd:2d:
         04:18:b6:d9:57:ba:72:77:74:3c:ae:b7:99:ff:41:4e:ba:ef:
         b2:02:21:00:86:f4:0c:69:44:ff:dd:3f:40:8d:f4:10:10:ef:
         08:89:70:83:50:db:25:fb:80:ea:99:88:24:96:68:7a:ea:9a
-----BEGIN CERTIFICATE-----
MIIB1DCCAXmgAwIBAgIJANQm7LrbpGLIMAoGCCqGSM49BAMCME8xCzAJBgNVBAYT
AktSMSMwIQYDVQQKDBpPcGVuIFNvdXJjZSBDb25zdWx0aW5nIEluYzEbMBkGA1UE
CwwSUGxheWNlS3ViZSBST09UIENBMB4XDTIyMDQwNDA3NDUyMFoXDTMyMDQwMTA3
NDUyMFowJzELMAkGA1UEBhMCS1IxGDAWBgNVBAMMD2xpbmtlcmQyLWlzc3VlcjBZ
MBMGByqGSM49AgEGCCqGSM49AwEHA0IABASUivbyeaitKEfS7FdP4AKFQTT7lKEz
fvTlQ3+IjC+qDuGlDIalj+wJ3kcQqmEAj6TcYkOm5vX4EHm+V/unKVSjZjBkMB0G
A1UdDgQWBBRJyeOTG0U432eUS/GKCbO3kGFt9zAfBgNVHSMEGDAWgBTcmTTFEg3C
uYkBYXKTronNyg9mLjASBgNVHRMBAf8ECDAGAQH/AgEAMA4GA1UdDwEB/wQEAwIB
hjAKBggqhkjOPQQDAgNJADBGAiEAySOfjjg5Y+rzL/r9LQQYttlXunJ3dDyut5n/
QU6677ICIQCG9AxpRP/dP0CN9BAQ7wiJcINQ2yX7gOqZiCSWaHrqmg==
-----END CERTIFICATE-----
