Certificate:
    Data:
        Version: 3 (0x2)
        Serial Number:
            d4:26:ec:ba:db:a4:62:bc
        Signature Algorithm: sha256WithRSAEncryption
        Issuer: C=KR, O=Open Source Consulting Inc, OU=PlayceKube ROOT CA
        Validity
            Not Before: Apr  4 07:25:32 2022 GMT
            Not After : Apr  1 07:25:32 2032 GMT
        Subject: C=KR, CN=linkerd2-issuer
        Subject Public Key Info:
            Public Key Algorithm: id-ecPublicKey
                Public-Key: (256 bit)
                pub:
                    04:35:bf:f2:06:a9:90:4e:10:6c:09:e9:c0:46:5a:
                    e8:f2:7e:4b:0d:0e:72:f1:2a:0b:da:71:1d:0c:b6:
                    b9:07:d8:ff:8c:e5:e1:cc:ae:8d:bf:33:80:fc:05:
                    37:6b:16:a9:b6:78:da:a2:4f:09:70:7d:c9:e4:1a:
                    c5:9c:5b:dc:87
                ASN1 OID: prime256v1
                NIST CURVE: P-256
        X509v3 extensions:
            X509v3 Subject Key Identifier: 
                B9:7C:E4:F1:A5:17:86:8E:95:30:B2:E3:11:89:88:06:38:A4:8C:29
            X509v3 Authority Key Identifier: 
                keyid:31:4D:A1:08:9A:6A:C9:BA:7A:37:8D:80:62:D6:74:E5:7D:7F:F5:00

            X509v3 Basic Constraints: critical
                CA:TRUE, pathlen:0
            X509v3 Key Usage: critical
                Digital Signature, Certificate Sign, CRL Sign
    Signature Algorithm: sha256WithRSAEncryption
         07:fc:42:69:9f:55:5b:24:d9:8a:3f:9d:22:31:4b:ca:b5:9e:
         f6:1d:51:90:69:54:87:82:73:fb:0b:f9:34:93:68:64:83:77:
         f6:fd:c8:73:b9:82:a7:65:cd:2d:0e:83:5d:39:0b:54:73:de:
         3d:09:25:08:45:f1:95:32:a6:e9:c2:eb:de:32:f0:f7:ca:db:
         30:63:d3:16:5d:09:23:5d:26:92:cb:bd:db:56:3c:a6:d4:6d:
         4f:a8:38:d7:b1:85:95:ca:dd:73:80:d3:ee:f0:85:d3:3e:4d:
         28:90:a1:15:f2:6a:3a:22:0b:87:95:4c:04:a7:a6:a1:ee:f7:
         c9:ba:98:a3:d8:6f:04:55:c8:7b:a4:c0:85:8c:97:69:fb:b3:
         66:9e:0f:20:55:ff:94:03:39:7c:fb:11:fc:38:a0:d2:29:ef:
         67:3a:d0:6a:4c:2b:75:36:8a:8b:a5:8f:09:a7:ed:a1:eb:91:
         5c:2b:6c:a9:ee:87:29:85:88:4f:54:99:50:96:05:bf:7a:5d:
         7b:d7:2e:f0:e1:48:21:3e:17:85:40:73:41:4a:55:cb:42:a3:
         26:91:7a:29:76:83:ea:6f:eb:2c:db:8f:d2:7e:e9:39:2a:3a:
         5a:e6:77:f6:a0:a1:09:0d:f3:ff:3a:a9:10:10:73:d8:75:79:
         d5:f5:63:8a
-----BEGIN CERTIFICATE-----
MIIClDCCAXygAwIBAgIJANQm7LrbpGK8MA0GCSqGSIb3DQEBCwUAME8xCzAJBgNV
BAYTAktSMSMwIQYDVQQKDBpPcGVuIFNvdXJjZSBDb25zdWx0aW5nIEluYzEbMBkG
A1UECwwSUGxheWNlS3ViZSBST09UIENBMB4XDTIyMDQwNDA3MjUzMloXDTMyMDQw
MTA3MjUzMlowJzELMAkGA1UEBhMCS1IxGDAWBgNVBAMMD2xpbmtlcmQyLWlzc3Vl
cjBZMBMGByqGSM49AgEGCCqGSM49AwEHA0IABDW/8gapkE4QbAnpwEZa6PJ+Sw0O
cvEqC9pxHQy2uQfY/4zl4cyujb8zgPwFN2sWqbZ42qJPCXB9yeQaxZxb3IejZjBk
MB0GA1UdDgQWBBS5fOTxpReGjpUwsuMRiYgGOKSMKTAfBgNVHSMEGDAWgBQxTaEI
mmrJuno3jYBi1nTlfX/1ADASBgNVHRMBAf8ECDAGAQH/AgEAMA4GA1UdDwEB/wQE
AwIBhjANBgkqhkiG9w0BAQsFAAOCAQEAB/xCaZ9VWyTZij+dIjFLyrWe9h1RkGlU
h4Jz+wv5NJNoZIN39v3Ic7mCp2XNLQ6DXTkLVHPePQklCEXxlTKm6cLr3jLw98rb
MGPTFl0JI10mksu921Y8ptRtT6g417GFlcrdc4DT7vCF0z5NKJChFfJqOiILh5VM
BKemoe73ybqYo9hvBFXIe6TAhYyXafuzZp4PIFX/lAM5fPsR/Dig0invZzrQakwr
dTaKi6WPCaftoeuRXCtsqe6HKYWIT1SZUJYFv3pde9cu8OFIIT4XhUBzQUpVy0Kj
JpF6KXaD6m/rLNuP0n7pOSo6WuZ39qChCQ3z/zqpEBBz2HV51fVjig==
-----END CERTIFICATE-----
