Certificate:
    Data:
        Version: 3 (0x2)
        Serial Number:
            d4:26:ec:ba:db:a4:62:c9
        Signature Algorithm: ecdsa-with-SHA256
        Issuer: C=KR, O=Open Source Consulting Inc, OU=PlayceKube ROOT CA
        Validity
            Not Before: Apr  4 08:25:26 2022 GMT
            Not After : Apr  1 08:25:26 2032 GMT
        Subject: C=KR, CN=linkerd2-issuer
        Subject Public Key Info:
            Public Key Algorithm: id-ecPublicKey
                Public-Key: (256 bit)
                pub:
                    04:26:dc:df:ed:b8:da:dc:70:7d:91:0d:7b:8e:c4:
                    66:95:22:b3:0c:53:50:9e:8b:16:5a:d8:25:c0:ce:
                    ff:5d:12:85:0b:33:be:0f:99:43:70:fd:a1:2d:3c:
                    22:a9:0e:4e:d7:4d:f3:51:01:a5:e0:09:39:1b:04:
                    d7:41:b2:34:4d
                ASN1 OID: prime256v1
                NIST CURVE: P-256
        X509v3 extensions:
            X509v3 Subject Key Identifier: 
                35:8F:CE:58:13:22:61:CA:D0:D2:B3:C1:BC:B8:BA:EA:25:A9:F1:54
            X509v3 Authority Key Identifier: 
                keyid:DC:99:34:C5:12:0D:C2:B9:89:01:61:72:93:AE:89:CD:CA:0F:66:2E

            X509v3 Basic Constraints: critical
                CA:TRUE, pathlen:0
            X509v3 Key Usage: critical
                Digital Signature, Certificate Sign, CRL Sign
    Signature Algorithm: ecdsa-with-SHA256
         30:45:02:21:00:d8:ab:67:79:a9:bc:b4:67:78:3f:85:00:ce:
         28:89:a0:98:7f:93:57:59:61:1b:d5:e0:f4:46:67:26:f4:61:
         4d:02:20:57:14:2a:a8:f8:12:8c:25:4a:e5:55:69:36:f3:82:
         1a:ae:ee:be:e3:db:fb:58:34:cc:28:a5:7d:20:1c:d9:74
-----BEGIN CERTIFICATE-----
MIIB0zCCAXmgAwIBAgIJANQm7LrbpGLJMAoGCCqGSM49BAMCME8xCzAJBgNVBAYT
AktSMSMwIQYDVQQKDBpPcGVuIFNvdXJjZSBDb25zdWx0aW5nIEluYzEbMBkGA1UE
CwwSUGxheWNlS3ViZSBST09UIENBMB4XDTIyMDQwNDA4MjUyNloXDTMyMDQwMTA4
MjUyNlowJzELMAkGA1UEBhMCS1IxGDAWBgNVBAMMD2xpbmtlcmQyLWlzc3VlcjBZ
MBMGByqGSM49AgEGCCqGSM49AwEHA0IABCbc3+242txwfZENe47EZpUiswxTUJ6L
FlrYJcDO/10ShQszvg+ZQ3D9oS08IqkOTtdN81EBpeAJORsE10GyNE2jZjBkMB0G
A1UdDgQWBBQ1j85YEyJhytDSs8G8uLrqJanxVDAfBgNVHSMEGDAWgBTcmTTFEg3C
uYkBYXKTronNyg9mLjASBgNVHRMBAf8ECDAGAQH/AgEAMA4GA1UdDwEB/wQEAwIB
hjAKBggqhkjOPQQDAgNIADBFAiEA2Ktneam8tGd4P4UAziiJoJh/k1dZYRvV4PRG
Zyb0YU0CIFcUKqj4EowlSuVVaTbzghqu7r7j2/tYNMwopX0gHNl0
-----END CERTIFICATE-----
