Certificate:
    Data:
        Version: 3 (0x2)
        Serial Number:
            d4:26:ec:ba:db:a4:62:aa
        Signature Algorithm: sha256WithRSAEncryption
        Issuer: OU=PlayceKube ROOT CA
        Validity
            Not Before: Mar 30 08:07:29 2022 GMT
            Not After : Mar 27 08:07:29 2032 GMT
        Subject: C=KR, CN=linkerd2-issuer
        Subject Public Key Info:
            Public Key Algorithm: id-ecPublicKey
                Public-Key: (256 bit)
                pub:
                    04:6d:a0:c7:ba:a4:95:56:28:08:d8:1e:e4:4f:e6:
                    04:80:f8:27:4f:a8:74:4e:39:f1:89:0a:9b:af:82:
                    1d:85:72:ac:46:36:94:cf:bd:ec:ae:93:0e:c5:24:
                    d5:89:4a:db:a6:47:55:2f:ba:ab:06:5e:8d:49:73:
                    70:91:bd:5d:89
                ASN1 OID: prime256v1
                NIST CURVE: P-256
        X509v3 extensions:
            X509v3 Subject Key Identifier: 
                D9:E0:46:CE:EA:5B:36:D6:A3:6D:FB:3C:9A:5D:90:C1:99:62:5E:C5
            X509v3 Authority Key Identifier: 
                keyid:40:CA:4C:7F:89:2C:41:1C:3E:D4:36:5C:76:73:11:EB:B6:28:8E:9E

            X509v3 Basic Constraints: critical
                CA:TRUE, pathlen:0
            X509v3 Key Usage: critical
                Digital Signature, Certificate Sign, CRL Sign
    Signature Algorithm: sha256WithRSAEncryption
         84:0f:3c:ac:e3:a3:92:9c:11:8b:dc:7c:ee:07:f6:3b:9b:83:
         96:0f:73:73:71:95:1d:06:65:45:fd:e8:f5:e2:43:51:85:fc:
         28:9c:10:5c:34:e5:a6:27:8c:5f:65:84:ea:fb:29:25:0b:21:
         1c:ff:11:26:0f:41:35:36:f0:9d:eb:3e:24:75:be:2f:27:16:
         fd:a0:5c:4c:50:ec:1a:93:8c:74:42:40:37:dc:a2:33:e3:0a:
         b1:e9:3a:61:3a:fc:f2:59:ac:d1:7e:df:42:14:4d:83:de:7a:
         0b:97:cf:0c:83:c6:91:39:ee:0f:f8:ee:48:e4:ed:58:79:b0:
         8a:3a:94:7e:7b:1c:08:14:58:ca:3c:6a:90:d9:2b:18:fd:a2:
         ed:70:10:25:99:71:e2:43:ce:05:52:9b:b3:f3:06:44:0a:02:
         35:68:9f:79:7b:d9:df:0a:c5:b8:2c:14:88:12:cc:5a:26:97:
         15:d5:ec:98:58:a4:e3:ac:1c:59:d0:52:85:13:2b:04:f3:1f:
         96:4a:61:8e:cb:ec:44:e3:d0:48:c2:cf:83:07:a2:3c:1e:cc:
         e0:4a:87:88:1a:39:bd:72:fb:8c:82:e8:16:23:8f:7d:50:7f:
         7f:fd:a1:70:20:0d:ce:16:be:7e:56:c5:f3:3c:2b:2f:d1:3f:
         5b:18:a7:5d
-----BEGIN CERTIFICATE-----
MIICYjCCAUqgAwIBAgIJANQm7LrbpGKqMA0GCSqGSIb3DQEBCwUAMB0xGzAZBgNV
BAsMElBsYXljZUt1YmUgUk9PVCBDQTAeFw0yMjAzMzAwODA3MjlaFw0zMjAzMjcw
ODA3MjlaMCcxCzAJBgNVBAYTAktSMRgwFgYDVQQDDA9saW5rZXJkMi1pc3N1ZXIw
WTATBgcqhkjOPQIBBggqhkjOPQMBBwNCAARtoMe6pJVWKAjYHuRP5gSA+CdPqHRO
OfGJCpuvgh2FcqxGNpTPveyukw7FJNWJStumR1UvuqsGXo1Jc3CRvV2Jo2YwZDAd
BgNVHQ4EFgQU2eBGzupbNtajbfs8ml2QwZliXsUwHwYDVR0jBBgwFoAUQMpMf4ks
QRw+1DZcdnMR67Yojp4wEgYDVR0TAQH/BAgwBgEB/wIBADAOBgNVHQ8BAf8EBAMC
AYYwDQYJKoZIhvcNAQELBQADggEBAIQPPKzjo5KcEYvcfO4H9jubg5YPc3NxlR0G
ZUX96PXiQ1GF/CicEFw05aYnjF9lhOr7KSULIRz/ESYPQTU28J3rPiR1vi8nFv2g
XExQ7BqTjHRCQDfcojPjCrHpOmE6/PJZrNF+30IUTYPeeguXzwyDxpE57g/47kjk
7Vh5sIo6lH57HAgUWMo8apDZKxj9ou1wECWZceJDzgVSm7PzBkQKAjVon3l72d8K
xbgsFIgSzFomlxXV7JhYpOOsHFnQUoUTKwTzH5ZKYY7L7ETj0EjCz4MHojwezOBK
h4gaOb1y+4yC6BYjj31Qf3/9oXAgDc4Wvn5WxfM8Ky/RP1sYp10=
-----END CERTIFICATE-----
