Certificate:
    Data:
        Version: 3 (0x2)
        Serial Number:
            d4:26:ec:ba:db:a4:61:01
        Signature Algorithm: sha256WithRSAEncryption
        Issuer: OU=PlayceKube ROOT CA
        Validity
            Not Before: Jan  6 08:31:04 2022 GMT
            Not After : Jan  4 08:31:04 2032 GMT
        Subject: C=KR, CN=linkerd2-issuer
        Subject Public Key Info:
            Public Key Algorithm: id-ecPublicKey
                Public-Key: (256 bit)
                pub:
                    04:79:0a:cd:4c:9c:59:7f:84:48:18:80:f2:04:ec:
                    0e:c4:ef:e2:35:cc:ab:f1:84:b2:c5:25:9c:d9:9d:
                    f8:c0:0f:e3:f9:44:22:6a:07:7e:a3:18:bc:4e:61:
                    6b:01:32:f0:bb:c0:09:8a:94:98:89:37:2a:f2:74:
                    46:08:f5:18:cc
                ASN1 OID: prime256v1
                NIST CURVE: P-256
        X509v3 extensions:
            X509v3 Subject Key Identifier: 
                C2:9D:B5:9C:D7:A9:1F:47:BB:5E:E3:5F:26:BF:23:98:B0:54:10:5F
            X509v3 Authority Key Identifier: 
                keyid:40:CA:4C:7F:89:2C:41:1C:3E:D4:36:5C:76:73:11:EB:B6:28:8E:9E

            X509v3 Basic Constraints: critical
                CA:TRUE, pathlen:0
            X509v3 Key Usage: critical
                Digital Signature, Certificate Sign, CRL Sign
    Signature Algorithm: sha256WithRSAEncryption
         a4:9d:bd:7d:31:2a:d9:de:4a:b9:dc:cc:f9:31:2a:ac:0b:4a:
         3d:30:60:84:77:ee:ba:5a:e5:5c:c6:35:ff:54:5e:50:96:88:
         f3:9a:be:10:52:01:7c:7c:76:5c:1a:93:ee:af:4d:7c:a2:f2:
         1d:eb:de:2f:6b:5e:c1:5d:44:e8:a1:a6:5e:7a:66:b8:28:13:
         b9:ad:38:4b:97:e2:fe:d1:06:b9:c2:a7:41:d7:8a:9b:33:32:
         84:77:b3:eb:63:b1:6b:9a:8f:aa:df:cb:3a:66:23:79:ed:fe:
         f5:0b:89:b6:a0:78:ef:b8:7c:36:8c:f2:fb:5b:f2:4c:03:13:
         1d:2c:8e:c3:79:9f:5e:5e:06:bb:f5:36:ff:a7:69:f3:ed:2d:
         a6:44:79:94:86:d6:39:41:a0:c2:7a:ff:b0:7c:21:3d:05:e6:
         9c:fd:c8:e7:04:e8:69:0a:f0:30:2e:da:38:68:66:ff:24:51:
         dd:5e:f5:ae:f0:c1:db:f4:93:35:15:00:d3:a5:1b:96:ec:3a:
         33:93:f0:5b:40:e2:36:e1:a5:18:6a:c3:c4:b6:0d:72:dc:4f:
         0a:93:3b:7b:f1:f5:63:ac:43:b5:fa:61:4a:90:bc:d9:f5:81:
         ed:72:2c:03:85:8a:2b:ba:ce:fe:b4:8f:86:62:73:e9:64:db:
         fc:7a:83:63
-----BEGIN CERTIFICATE-----
MIICYjCCAUqgAwIBAgIJANQm7LrbpGEBMA0GCSqGSIb3DQEBCwUAMB0xGzAZBgNV
BAsMElBsYXljZUt1YmUgUk9PVCBDQTAeFw0yMjAxMDYwODMxMDRaFw0zMjAxMDQw
ODMxMDRaMCcxCzAJBgNVBAYTAktSMRgwFgYDVQQDDA9saW5rZXJkMi1pc3N1ZXIw
WTATBgcqhkjOPQIBBggqhkjOPQMBBwNCAAR5Cs1MnFl/hEgYgPIE7A7E7+I1zKvx
hLLFJZzZnfjAD+P5RCJqB36jGLxOYWsBMvC7wAmKlJiJNyrydEYI9RjMo2YwZDAd
BgNVHQ4EFgQUwp21nNepH0e7XuNfJr8jmLBUEF8wHwYDVR0jBBgwFoAUQMpMf4ks
QRw+1DZcdnMR67Yojp4wEgYDVR0TAQH/BAgwBgEB/wIBADAOBgNVHQ8BAf8EBAMC
AYYwDQYJKoZIhvcNAQELBQADggEBAKSdvX0xKtneSrnczPkxKqwLSj0wYIR37rpa
5VzGNf9UXlCWiPOavhBSAXx8dlwak+6vTXyi8h3r3i9rXsFdROihpl56ZrgoE7mt
OEuX4v7RBrnCp0HXipszMoR3s+tjsWuaj6rfyzpmI3nt/vULibageO+4fDaM8vtb
8kwDEx0sjsN5n15eBrv1Nv+nafPtLaZEeZSG1jlBoMJ6/7B8IT0F5pz9yOcE6GkK
8DAu2jhoZv8kUd1e9a7wwdv0kzUVANOlG5bsOjOT8FtA4jbhpRhqw8S2DXLcTwqT
O3vx9WOsQ7X6YUqQvNn1ge1yLAOFiiu6zv60j4Zic+lk2/x6g2M=
-----END CERTIFICATE-----
