Certificate:
    Data:
        Version: 3 (0x2)
        Serial Number:
            d4:26:ec:ba:db:a4:62:b3
        Signature Algorithm: sha256WithRSAEncryption
        Issuer: OU=PlayceKube ROOT CA
        Validity
            Not Before: Apr  4 06:35:59 2022 GMT
            Not After : Apr  1 06:35:59 2032 GMT
        Subject: C=KR, CN=linkerd2-issuer
        Subject Public Key Info:
            Public Key Algorithm: id-ecPublicKey
                Public-Key: (256 bit)
                pub:
                    04:f9:b8:84:1b:31:7e:b0:2c:70:6e:5e:39:38:3e:
                    56:1d:be:08:48:f1:6a:c4:73:5e:49:ff:42:fd:cb:
                    fc:b1:40:ab:8b:b5:8a:15:20:ff:65:35:a0:e7:0d:
                    ba:bf:e0:6a:e0:13:49:07:db:68:83:ec:4c:de:c5:
                    b9:9c:86:18:1e
                ASN1 OID: prime256v1
                NIST CURVE: P-256
        X509v3 extensions:
            X509v3 Subject Key Identifier: 
                F1:A0:7B:A5:D8:73:57:EE:F7:D5:71:7D:51:B8:E0:DB:F0:6F:74:C2
            X509v3 Authority Key Identifier: 
                keyid:40:CA:4C:7F:89:2C:41:1C:3E:D4:36:5C:76:73:11:EB:B6:28:8E:9E

            X509v3 Basic Constraints: critical
                CA:TRUE, pathlen:0
            X509v3 Key Usage: critical
                Digital Signature, Certificate Sign, CRL Sign
    Signature Algorithm: sha256WithRSAEncryption
         60:80:77:e3:07:9b:e3:37:5a:50:62:70:55:09:67:21:0e:63:
         57:89:ff:36:41:ea:12:d7:09:97:1c:e0:91:c1:9a:c1:c6:f5:
         66:c7:3e:35:3b:f5:c1:02:ad:57:5a:cb:15:c4:72:9b:79:c0:
         2e:79:91:9c:93:0b:e1:db:3a:7e:dd:0f:27:2c:22:54:28:26:
         54:16:db:ce:ed:9c:aa:e9:7b:f4:32:82:71:a9:53:79:56:52:
         9e:cb:72:34:24:9c:a1:18:43:ab:36:51:dc:e1:d9:78:9c:4e:
         b1:7c:1c:05:a4:7c:74:0d:a3:3c:ef:d8:9a:52:d2:cb:93:ee:
         c2:f6:4e:c5:23:4a:49:a9:b2:d5:8d:a9:66:0a:1a:ab:e9:05:
         82:92:bb:03:28:44:e1:30:c0:7c:9a:8a:5e:06:b2:0f:a8:0c:
         51:ae:7a:be:fe:73:0c:2b:a8:21:d5:3b:2d:7c:b8:00:1b:9d:
         9b:39:02:1f:6f:83:1a:95:fd:fa:a1:5c:b5:16:85:99:2f:03:
         d9:2a:e8:de:69:4a:43:37:6d:fa:f0:19:e2:b5:3e:1e:b1:4a:
         c1:96:74:3e:eb:72:de:63:cf:df:ce:fc:44:6c:3d:d8:bc:6e:
         cd:d3:d1:5d:b5:df:33:5e:ed:09:6b:0d:15:17:e3:cc:5c:7f:
         e5:bf:9d:92
-----BEGIN CERTIFICATE-----
MIICYjCCAUqgAwIBAgIJANQm7LrbpGKzMA0GCSqGSIb3DQEBCwUAMB0xGzAZBgNV
BAsMElBsYXljZUt1YmUgUk9PVCBDQTAeFw0yMjA0MDQwNjM1NTlaFw0zMjA0MDEw
NjM1NTlaMCcxCzAJBgNVBAYTAktSMRgwFgYDVQQDDA9saW5rZXJkMi1pc3N1ZXIw
WTATBgcqhkjOPQIBBggqhkjOPQMBBwNCAAT5uIQbMX6wLHBuXjk4PlYdvghI8WrE
c15J/0L9y/yxQKuLtYoVIP9lNaDnDbq/4GrgE0kH22iD7Ezexbmchhgeo2YwZDAd
BgNVHQ4EFgQU8aB7pdhzV+731XF9Ubjg2/BvdMIwHwYDVR0jBBgwFoAUQMpMf4ks
QRw+1DZcdnMR67Yojp4wEgYDVR0TAQH/BAgwBgEB/wIBADAOBgNVHQ8BAf8EBAMC
AYYwDQYJKoZIhvcNAQELBQADggEBAGCAd+MHm+M3WlBicFUJZyEOY1eJ/zZB6hLX
CZcc4JHBmsHG9WbHPjU79cECrVdayxXEcpt5wC55kZyTC+HbOn7dDycsIlQoJlQW
287tnKrpe/QygnGpU3lWUp7LcjQknKEYQ6s2Udzh2XicTrF8HAWkfHQNozzv2JpS
0suT7sL2TsUjSkmpstWNqWYKGqvpBYKSuwMoROEwwHyail4Gsg+oDFGuer7+cwwr
qCHVOy18uAAbnZs5Ah9vgxqV/fqhXLUWhZkvA9kq6N5pSkM3bfrwGeK1Ph6xSsGW
dD7rct5jz9/O/ERsPdi8bs3T0V213zNe7QlrDRUX48xcf+W/nZI=
-----END CERTIFICATE-----
