Certificate:
    Data:
        Version: 3 (0x2)
        Serial Number:
            d4:26:ec:ba:db:a4:62:b5
        Signature Algorithm: ecdsa-with-SHA256
        Issuer: C=KR, O=Open Source Consulting Inc, OU=PlayceKube ROOT CA
        Validity
            Not Before: Apr  4 06:56:36 2022 GMT
            Not After : Apr  1 06:56:36 2032 GMT
        Subject: C=KR, CN=linkerd2-issuer
        Subject Public Key Info:
            Public Key Algorithm: id-ecPublicKey
                Public-Key: (256 bit)
                pub:
                    04:78:e6:72:78:10:4a:52:1a:ea:28:79:ae:50:4d:
                    41:4f:1b:a2:c9:e2:5e:20:c3:e1:3e:6b:60:91:af:
                    e5:36:7e:91:71:30:df:59:df:21:19:a2:35:58:06:
                    40:b8:d1:67:94:aa:ad:0f:6f:2e:94:40:70:4e:ca:
                    d0:bf:5b:42:78
                ASN1 OID: prime256v1
                NIST CURVE: P-256
        X509v3 extensions:
            X509v3 Subject Key Identifier: 
                81:57:37:E4:68:60:3B:C8:62:44:68:54:07:D0:4C:60:95:98:0D:47
            X509v3 Authority Key Identifier: 
                keyid:A5:7F:81:40:61:C3:B8:C3:F3:B7:28:52:FB:F9:CA:55:DA:5D:0C:21

            X509v3 Basic Constraints: critical
                CA:TRUE, pathlen:0
            X509v3 Key Usage: critical
                Digital Signature, Certificate Sign, CRL Sign
    Signature Algorithm: ecdsa-with-SHA256
         30:45:02:20:3d:77:1a:68:d2:88:a6:a2:99:9e:ac:d7:12:69:
         b6:3d:3e:1d:2c:f5:65:92:b0:9f:ec:62:28:c4:1c:8d:50:53:
         02:21:00:d2:f9:e5:41:cc:a7:c4:79:be:e1:f2:9a:97:21:52:
         5a:e8:21:23:85:3a:26:9d:69:c7:ea:c0:1a:55:c8:a6:cb
-----BEGIN CERTIFICATE-----
MIIB0zCCAXmgAwIBAgIJANQm7LrbpGK1MAoGCCqGSM49BAMCME8xCzAJBgNVBAYT
AktSMSMwIQYDVQQKDBpPcGVuIFNvdXJjZSBDb25zdWx0aW5nIEluYzEbMBkGA1UE
CwwSUGxheWNlS3ViZSBST09UIENBMB4XDTIyMDQwNDA2NTYzNloXDTMyMDQwMTA2
NTYzNlowJzELMAkGA1UEBhMCS1IxGDAWBgNVBAMMD2xpbmtlcmQyLWlzc3VlcjBZ
MBMGByqGSM49AgEGCCqGSM49AwEHA0IABHjmcngQSlIa6ih5rlBNQU8bosniXiDD
4T5rYJGv5TZ+kXEw31nfIRmiNVgGQLjRZ5SqrQ9vLpRAcE7K0L9bQnijZjBkMB0G
A1UdDgQWBBSBVzfkaGA7yGJEaFQH0ExglZgNRzAfBgNVHSMEGDAWgBSlf4FAYcO4
w/O3KFL7+cpV2l0MITASBgNVHRMBAf8ECDAGAQH/AgEAMA4GA1UdDwEB/wQEAwIB
hjAKBggqhkjOPQQDAgNIADBFAiA9dxpo0oimopmerNcSabY9Ph0s9WWSsJ/sYijE
HI1QUwIhANL55UHMp8R5vuHympchUlroISOFOiadacfqwBpVyKbL
-----END CERTIFICATE-----
