Certificate:
    Data:
        Version: 3 (0x2)
        Serial Number:
            d4:26:ec:ba:db:a4:62:cb
        Signature Algorithm: ecdsa-with-SHA256
        Issuer: C=KR, O=Open Source Consulting Inc, OU=PlayceKube ROOT CA
        Validity
            Not Before: Apr  4 09:13:04 2022 GMT
            Not After : Apr  1 09:13:04 2032 GMT
        Subject: C=KR, CN=linkerd2-issuer
        Subject Public Key Info:
            Public Key Algorithm: id-ecPublicKey
                Public-Key: (256 bit)
                pub:
                    04:b4:c8:95:db:2a:09:d0:db:c0:b0:d1:5f:82:01:
                    78:72:f7:f8:be:02:03:18:d3:2f:dc:ad:c6:69:5b:
                    bd:7c:72:bd:01:19:38:37:fc:db:1a:06:e8:04:87:
                    c0:5c:78:ed:2d:1e:e0:f2:d8:22:c1:ce:89:6a:6e:
                    cc:3d:f9:5f:d8
                ASN1 OID: prime256v1
                NIST CURVE: P-256
        X509v3 extensions:
            X509v3 Subject Key Identifier: 
                53:4F:4E:D1:71:7B:0B:58:CC:16:ED:B2:AC:A3:42:93:02:4F:CB:E4
            X509v3 Authority Key Identifier: 
                keyid:DC:99:34:C5:12:0D:C2:B9:89:01:61:72:93:AE:89:CD:CA:0F:66:2E

            X509v3 Basic Constraints: critical
                CA:TRUE, pathlen:0
            X509v3 Key Usage: critical
                Digital Signature, Certificate Sign, CRL Sign
    Signature Algorithm: ecdsa-with-SHA256
         30:46:02:21:00:a4:40:e4:81:5a:b8:9e:1a:78:6d:00:cc:9c:
         10:96:b0:00:ba:bd:ca:80:49:2f:fd:cc:62:54:7a:16:8d:12:
         e5:02:21:00:e7:4b:bc:6c:ab:a5:89:0d:37:7e:dc:79:a9:98:
         a0:8b:d0:54:2e:ab:a7:c4:81:fe:be:d5:f1:36:19:dc:35:41
-----BEGIN CERTIFICATE-----
MIIB1DCCAXmgAwIBAgIJANQm7LrbpGLLMAoGCCqGSM49BAMCME8xCzAJBgNVBAYT
AktSMSMwIQYDVQQKDBpPcGVuIFNvdXJjZSBDb25zdWx0aW5nIEluYzEbMBkGA1UE
CwwSUGxheWNlS3ViZSBST09UIENBMB4XDTIyMDQwNDA5MTMwNFoXDTMyMDQwMTA5
MTMwNFowJzELMAkGA1UEBhMCS1IxGDAWBgNVBAMMD2xpbmtlcmQyLWlzc3VlcjBZ
MBMGByqGSM49AgEGCCqGSM49AwEHA0IABLTIldsqCdDbwLDRX4IBeHL3+L4CAxjT
L9ytxmlbvXxyvQEZODf82xoG6ASHwFx47S0e4PLYIsHOiWpuzD35X9ijZjBkMB0G
A1UdDgQWBBRTT07RcXsLWMwW7bKso0KTAk/L5DAfBgNVHSMEGDAWgBTcmTTFEg3C
uYkBYXKTronNyg9mLjASBgNVHRMBAf8ECDAGAQH/AgEAMA4GA1UdDwEB/wQEAwIB
hjAKBggqhkjOPQQDAgNJADBGAiEApEDkgVq4nhp4bQDMnBCWsAC6vcqASS/9zGJU
ehaNEuUCIQDnS7xsq6WJDTd+3HmpmKCL0FQuq6fEgf6+1fE2Gdw1QQ==
-----END CERTIFICATE-----
