Certificate:
    Data:
        Version: 3 (0x2)
        Serial Number:
            d4:26:ec:ba:db:a4:61:00
        Signature Algorithm: sha256WithRSAEncryption
        Issuer: OU=PlayceKube ROOT CA
        Validity
            Not Before: Jan  6 05:17:29 2022 GMT
            Not After : Jan  4 05:17:29 2032 GMT
        Subject: C=KR, CN=linkerd2-issuer
        Subject Public Key Info:
            Public Key Algorithm: id-ecPublicKey
                Public-Key: (256 bit)
                pub:
                    04:bb:fc:8b:21:1b:52:7e:cb:4e:29:8f:3d:1c:db:
                    99:8b:19:fb:f0:76:e5:ff:19:85:68:28:2d:d3:b2:
                    a4:27:fb:7c:84:66:7f:d8:3c:a9:6f:27:5f:6b:58:
                    74:55:68:d6:44:8a:53:30:a8:84:d6:94:bb:cd:fb:
                    4b:91:d2:a8:cd
                ASN1 OID: prime256v1
                NIST CURVE: P-256
        X509v3 extensions:
            X509v3 Subject Key Identifier: 
                F3:F0:5B:93:AB:9D:35:A0:63:E1:B8:49:78:A8:C9:F2:84:26:A3:4C
            X509v3 Authority Key Identifier: 
                keyid:40:CA:4C:7F:89:2C:41:1C:3E:D4:36:5C:76:73:11:EB:B6:28:8E:9E

            X509v3 Basic Constraints: critical
                CA:TRUE, pathlen:0
            X509v3 Key Usage: critical
                Digital Signature, Certificate Sign, CRL Sign
    Signature Algorithm: sha256WithRSAEncryption
         00:66:a9:e2:46:48:73:5e:6d:02:c7:60:95:47:5a:3d:9a:6b:
         10:84:08:48:68:95:65:d0:fc:3e:ce:9c:0d:09:e0:3d:c2:80:
         88:cb:34:6f:2a:1a:d4:c4:74:83:e5:d4:fb:fb:ee:3e:ce:21:
         e5:43:62:1f:11:9e:ae:25:e2:6a:eb:cf:1c:3d:30:e3:29:70:
         da:3c:a8:c6:52:fc:eb:b4:f7:fc:5f:53:95:13:af:8b:74:3d:
         e7:71:82:37:80:9c:b4:bc:40:99:0d:f3:d0:e6:58:92:7a:82:
         cb:01:ab:97:f0:a9:04:b7:1a:a8:23:c9:a0:b7:bb:df:b3:ab:
         bc:f5:d5:e0:c5:19:bc:18:13:e6:42:a2:dc:88:0c:cd:72:7e:
         f8:35:27:91:40:bb:51:d4:24:00:cf:b9:6e:93:dd:37:24:ec:
         50:f2:b9:bc:9e:92:86:22:ef:5e:a8:b4:ca:3c:f0:b6:d9:78:
         51:75:27:b6:c3:8c:ba:82:c7:d4:66:26:4a:9d:6d:f2:e8:0a:
         cf:58:ff:ff:fc:b3:5d:b9:ee:77:45:1e:19:79:14:17:ed:4c:
         77:f6:07:91:9a:74:a8:85:c6:cf:ca:7d:b5:7f:0c:43:01:c3:
         d7:ef:ed:49:68:0f:4c:c7:0d:db:8b:70:05:0e:75:d0:b9:3c:
         ea:fa:0d:da
-----BEGIN CERTIFICATE-----
MIICYjCCAUqgAwIBAgIJANQm7LrbpGEAMA0GCSqGSIb3DQEBCwUAMB0xGzAZBgNV
BAsMElBsYXljZUt1YmUgUk9PVCBDQTAeFw0yMjAxMDYwNTE3MjlaFw0zMjAxMDQw
NTE3MjlaMCcxCzAJBgNVBAYTAktSMRgwFgYDVQQDDA9saW5rZXJkMi1pc3N1ZXIw
WTATBgcqhkjOPQIBBggqhkjOPQMBBwNCAAS7/IshG1J+y04pjz0c25mLGfvwduX/
GYVoKC3TsqQn+3yEZn/YPKlvJ19rWHRVaNZEilMwqITWlLvN+0uR0qjNo2YwZDAd
BgNVHQ4EFgQU8/Bbk6udNaBj4bhJeKjJ8oQmo0wwHwYDVR0jBBgwFoAUQMpMf4ks
QRw+1DZcdnMR67Yojp4wEgYDVR0TAQH/BAgwBgEB/wIBADAOBgNVHQ8BAf8EBAMC
AYYwDQYJKoZIhvcNAQELBQADggEBAABmqeJGSHNebQLHYJVHWj2aaxCECEholWXQ
/D7OnA0J4D3CgIjLNG8qGtTEdIPl1Pv77j7OIeVDYh8Rnq4l4mrrzxw9MOMpcNo8
qMZS/Ou09/xfU5UTr4t0PedxgjeAnLS8QJkN89DmWJJ6gssBq5fwqQS3GqgjyaC3
u9+zq7z11eDFGbwYE+ZCotyIDM1yfvg1J5FAu1HUJADPuW6T3Tck7FDyubyekoYi
716otMo88LbZeFF1J7bDjLqCx9RmJkqdbfLoCs9Y///8s1257ndFHhl5FBftTHf2
B5GadKiFxs/KfbV/DEMBw9fv7UloD0zHDduLcAUOddC5POr6Ddo=
-----END CERTIFICATE-----
