Certificate:
    Data:
        Version: 3 (0x2)
        Serial Number:
            d4:26:ec:ba:db:a4:62:cc
        Signature Algorithm: ecdsa-with-SHA256
        Issuer: C=KR, O=Open Source Consulting Inc, OU=PlayceKube ROOT CA
        Validity
            Not Before: Apr  4 09:23:49 2022 GMT
            Not After : Apr  1 09:23:49 2032 GMT
        Subject: C=KR, CN=linkerd2-issuer
        Subject Public Key Info:
            Public Key Algorithm: id-ecPublicKey
                Public-Key: (256 bit)
                pub:
                    04:92:2c:ed:ed:07:d7:7f:02:45:b1:00:54:39:7e:
                    60:e8:a0:20:9e:0f:f3:00:48:0e:e4:c6:37:30:61:
                    f4:3d:61:11:d4:68:c8:31:8c:27:94:af:a3:b8:79:
                    96:01:5c:e5:f2:2f:50:26:8d:5e:3e:49:2f:b7:1c:
                    10:c5:57:60:84
                ASN1 OID: prime256v1
                NIST CURVE: P-256
        X509v3 extensions:
            X509v3 Subject Key Identifier: 
                FD:B4:A4:E5:13:B9:AE:1A:BE:72:3A:10:EA:9C:53:4E:64:30:A7:0A
            X509v3 Authority Key Identifier: 
                keyid:DC:99:34:C5:12:0D:C2:B9:89:01:61:72:93:AE:89:CD:CA:0F:66:2E

            X509v3 Basic Constraints: critical
                CA:TRUE, pathlen:0
            X509v3 Key Usage: critical
                Digital Signature, Certificate Sign, CRL Sign
    Signature Algorithm: ecdsa-with-SHA256
         30:45:02:20:67:94:ab:12:9d:62:13:0e:98:6e:1b:b2:2c:e1:
         61:be:0d:e6:8a:64:c6:c2:55:d4:4f:d4:3b:f1:3a:31:45:2a:
         02:21:00:df:34:8d:03:07:de:25:fa:e7:a2:bf:7c:28:0d:f4:
         4b:00:73:81:96:73:0e:bd:ff:4e:38:f6:57:8b:a1:90:91
-----BEGIN CERTIFICATE-----
MIIB0zCCAXmgAwIBAgIJANQm7LrbpGLMMAoGCCqGSM49BAMCME8xCzAJBgNVBAYT
AktSMSMwIQYDVQQKDBpPcGVuIFNvdXJjZSBDb25zdWx0aW5nIEluYzEbMBkGA1UE
CwwSUGxheWNlS3ViZSBST09UIENBMB4XDTIyMDQwNDA5MjM0OVoXDTMyMDQwMTA5
MjM0OVowJzELMAkGA1UEBhMCS1IxGDAWBgNVBAMMD2xpbmtlcmQyLWlzc3VlcjBZ
MBMGByqGSM49AgEGCCqGSM49AwEHA0IABJIs7e0H138CRbEAVDl+YOigIJ4P8wBI
DuTGNzBh9D1hEdRoyDGMJ5Svo7h5lgFc5fIvUCaNXj5JL7ccEMVXYISjZjBkMB0G
A1UdDgQWBBT9tKTlE7muGr5yOhDqnFNOZDCnCjAfBgNVHSMEGDAWgBTcmTTFEg3C
uYkBYXKTronNyg9mLjASBgNVHRMBAf8ECDAGAQH/AgEAMA4GA1UdDwEB/wQEAwIB
hjAKBggqhkjOPQQDAgNIADBFAiBnlKsSnWITDphuG7Is4WG+DeaKZMbCVdRP1Dvx
OjFFKgIhAN80jQMH3iX656K/fCgN9EsAc4GWcw69/0449leLoZCR
-----END CERTIFICATE-----
