Certificate:
    Data:
        Version: 3 (0x2)
        Serial Number:
            d4:26:ec:ba:db:a4:62:b4
        Signature Algorithm: ecdsa-with-SHA256
        Issuer: C=KR, O=Open Source Consulting Inc, OU=PlayceKube ROOT CA
        Validity
            Not Before: Apr  4 06:54:48 2022 GMT
            Not After : Apr  1 06:54:48 2032 GMT
        Subject: C=KR, CN=linkerd2-issuer
        Subject Public Key Info:
            Public Key Algorithm: id-ecPublicKey
                Public-Key: (256 bit)
                pub:
                    04:88:4c:7d:75:93:b6:e6:f3:f7:bb:1a:c1:63:c9:
                    36:fe:59:3d:a9:1b:90:52:b1:c0:01:f3:17:2d:80:
                    a2:40:6f:2e:22:9f:dc:f1:a2:06:e6:03:31:3a:01:
                    4f:6d:b1:c2:55:fa:00:2b:07:63:c8:62:fd:8d:e7:
                    54:13:26:dd:4e
                ASN1 OID: prime256v1
                NIST CURVE: P-256
        X509v3 extensions:
            X509v3 Subject Key Identifier: 
                05:B2:25:B5:29:2B:7B:E9:62:9A:70:D8:3C:C3:7B:90:7A:D0:16:13
            X509v3 Authority Key Identifier: 
                keyid:A5:7F:81:40:61:C3:B8:C3:F3:B7:28:52:FB:F9:CA:55:DA:5D:0C:21

            X509v3 Basic Constraints: critical
                CA:TRUE, pathlen:0
            X509v3 Key Usage: critical
                Digital Signature, Certificate Sign, CRL Sign
    Signature Algorithm: ecdsa-with-SHA256
         30:44:02:20:4e:f1:d3:4c:e6:6b:ae:bf:1c:36:0d:81:d9:69:
         81:34:b6:e0:c6:9b:c2:ba:49:3c:9d:dd:24:28:0c:40:1d:cc:
         02:20:44:c1:dc:8e:18:04:53:45:91:77:fc:f5:0e:e9:3e:9a:
         d3:f1:a1:9b:43:d3:13:87:0e:fe:24:d0:84:6c:56:92
-----BEGIN CERTIFICATE-----
MIIB0jCCAXmgAwIBAgIJANQm7LrbpGK0MAoGCCqGSM49BAMCME8xCzAJBgNVBAYT
AktSMSMwIQYDVQQKDBpPcGVuIFNvdXJjZSBDb25zdWx0aW5nIEluYzEbMBkGA1UE
CwwSUGxheWNlS3ViZSBST09UIENBMB4XDTIyMDQwNDA2NTQ0OFoXDTMyMDQwMTA2
NTQ0OFowJzELMAkGA1UEBhMCS1IxGDAWBgNVBAMMD2xpbmtlcmQyLWlzc3VlcjBZ
MBMGByqGSM49AgEGCCqGSM49AwEHA0IABIhMfXWTtubz97sawWPJNv5ZPakbkFKx
wAHzFy2AokBvLiKf3PGiBuYDMToBT22xwlX6ACsHY8hi/Y3nVBMm3U6jZjBkMB0G
A1UdDgQWBBQFsiW1KSt76WKacNg8w3uQetAWEzAfBgNVHSMEGDAWgBSlf4FAYcO4
w/O3KFL7+cpV2l0MITASBgNVHRMBAf8ECDAGAQH/AgEAMA4GA1UdDwEB/wQEAwIB
hjAKBggqhkjOPQQDAgNHADBEAiBO8dNM5muuvxw2DYHZaYE0tuDGm8K6STyd3SQo
DEAdzAIgRMHcjhgEU0WRd/z1Duk+mtPxoZtD0xOHDv4k0IRsVpI=
-----END CERTIFICATE-----
