Certificate:
    Data:
        Version: 3 (0x2)
        Serial Number:
            d4:26:ec:ba:db:a4:61:02
        Signature Algorithm: sha256WithRSAEncryption
        Issuer: OU=PlayceKube ROOT CA
        Validity
            Not Before: Jan  6 08:43:30 2022 GMT
            Not After : Jan  4 08:43:30 2032 GMT
        Subject: C=KR, CN=linkerd2-issuer
        Subject Public Key Info:
            Public Key Algorithm: id-ecPublicKey
                Public-Key: (256 bit)
                pub:
                    04:53:24:66:69:2d:c7:1a:c5:43:4a:d8:fa:b2:d8:
                    1e:56:77:79:d2:d6:00:bd:f7:2c:c6:1c:e1:5f:7c:
                    7b:db:1b:11:24:af:21:a0:f9:9d:b1:e7:61:8d:8e:
                    55:65:fe:39:5f:73:b5:38:95:89:7c:bd:e5:be:bd:
                    87:51:ec:df:86
                ASN1 OID: prime256v1
                NIST CURVE: P-256
        X509v3 extensions:
            X509v3 Subject Key Identifier: 
                CA:4E:BE:CC:7B:31:20:6D:30:6E:CB:9D:21:03:ED:94:FF:E6:B7:E6
            X509v3 Authority Key Identifier: 
                keyid:40:CA:4C:7F:89:2C:41:1C:3E:D4:36:5C:76:73:11:EB:B6:28:8E:9E

            X509v3 Basic Constraints: critical
                CA:TRUE, pathlen:0
            X509v3 Key Usage: critical
                Digital Signature, Certificate Sign, CRL Sign
    Signature Algorithm: sha256WithRSAEncryption
         75:a3:49:81:77:73:c2:9a:e1:1b:37:31:e1:9a:85:ad:01:0e:
         61:7f:32:35:da:5b:1b:63:18:f0:20:c9:62:19:92:3b:b6:32:
         3b:61:38:fe:51:e0:61:d1:d6:a4:c7:94:00:da:57:6d:2e:15:
         aa:c8:b9:f9:6b:1c:ef:9c:bb:73:19:57:cc:a0:b8:a3:8d:ce:
         2a:c2:c7:31:40:2b:ed:5c:d6:a6:14:d0:da:c0:06:a2:51:7c:
         89:40:fd:1f:d6:6a:9c:75:d9:e0:41:16:b9:e3:5f:de:a2:5c:
         7f:73:fb:1a:39:1b:5b:8a:1f:d7:58:51:1c:d2:19:16:31:92:
         ff:ae:9e:20:a3:fa:2a:de:84:15:a0:5c:fa:d9:a6:28:8b:68:
         ab:48:8c:eb:41:5a:3e:54:be:99:fd:c0:7f:a5:70:3b:98:d5:
         d5:86:7e:ef:3a:6c:eb:85:5d:2a:a8:fb:bb:e6:bf:88:b4:df:
         28:51:c1:32:7e:66:df:a2:8c:be:55:3f:9c:a3:83:cf:f7:19:
         6f:da:c9:94:8f:ab:95:78:bb:11:cd:f0:e4:ef:37:27:b7:c5:
         fd:44:f8:3b:32:04:22:6f:a5:ca:b3:3e:80:18:f3:95:37:86:
         1c:40:49:75:46:0c:f0:db:f9:26:5e:f1:16:f1:01:88:77:de:
         da:4a:a6:3f
-----BEGIN CERTIFICATE-----
MIICYjCCAUqgAwIBAgIJANQm7LrbpGECMA0GCSqGSIb3DQEBCwUAMB0xGzAZBgNV
BAsMElBsYXljZUt1YmUgUk9PVCBDQTAeFw0yMjAxMDYwODQzMzBaFw0zMjAxMDQw
ODQzMzBaMCcxCzAJBgNVBAYTAktSMRgwFgYDVQQDDA9saW5rZXJkMi1pc3N1ZXIw
WTATBgcqhkjOPQIBBggqhkjOPQMBBwNCAARTJGZpLccaxUNK2Pqy2B5Wd3nS1gC9
9yzGHOFffHvbGxEkryGg+Z2x52GNjlVl/jlfc7U4lYl8veW+vYdR7N+Go2YwZDAd
BgNVHQ4EFgQUyk6+zHsxIG0wbsudIQPtlP/mt+YwHwYDVR0jBBgwFoAUQMpMf4ks
QRw+1DZcdnMR67Yojp4wEgYDVR0TAQH/BAgwBgEB/wIBADAOBgNVHQ8BAf8EBAMC
AYYwDQYJKoZIhvcNAQELBQADggEBAHWjSYF3c8Ka4Rs3MeGaha0BDmF/MjXaWxtj
GPAgyWIZkju2MjthOP5R4GHR1qTHlADaV20uFarIuflrHO+cu3MZV8yguKONzirC
xzFAK+1c1qYU0NrABqJRfIlA/R/Wapx12eBBFrnjX96iXH9z+xo5G1uKH9dYURzS
GRYxkv+uniCj+irehBWgXPrZpiiLaKtIjOtBWj5Uvpn9wH+lcDuY1dWGfu86bOuF
XSqo+7vmv4i03yhRwTJ+Zt+ijL5VP5yjg8/3GW/ayZSPq5V4uxHN8OTvNye3xf1E
+DsyBCJvpcqzPoAY85U3hhxASXVGDPDb+SZe8RbxAYh33tpKpj8=
-----END CERTIFICATE-----
