Certificate:
    Data:
        Version: 3 (0x2)
        Serial Number:
            d4:26:ec:ba:db:a4:61:55
        Signature Algorithm: sha256WithRSAEncryption
        Issuer: OU=PlayceKube ROOT CA
        Validity
            Not Before: Jan 12 04:24:51 2022 GMT
            Not After : Jan 10 04:24:51 2032 GMT
        Subject: C=KR, CN=linkerd2-issuer
        Subject Public Key Info:
            Public Key Algorithm: id-ecPublicKey
                Public-Key: (256 bit)
                pub:
                    04:ef:ab:17:f1:1b:5a:8a:13:49:cc:aa:7d:39:30:
                    d1:1b:62:b2:ac:69:fc:91:37:39:54:ab:e8:91:19:
                    f0:51:01:68:08:d4:80:63:f3:39:fb:83:39:79:44:
                    da:54:ea:69:d6:64:b7:03:5e:e4:0a:b7:6b:b9:63:
                    02:c0:4d:a9:8e
                ASN1 OID: prime256v1
                NIST CURVE: P-256
        X509v3 extensions:
            X509v3 Subject Key Identifier: 
                EF:CE:DA:70:2D:FD:AC:C0:0B:32:F7:72:A9:05:62:1B:D4:09:98:4D
            X509v3 Authority Key Identifier: 
                keyid:40:CA:4C:7F:89:2C:41:1C:3E:D4:36:5C:76:73:11:EB:B6:28:8E:9E

            X509v3 Basic Constraints: critical
                CA:TRUE, pathlen:0
            X509v3 Key Usage: critical
                Digital Signature, Certificate Sign, CRL Sign
    Signature Algorithm: sha256WithRSAEncryption
         92:b7:9b:2b:a1:87:58:e9:a5:e2:99:12:0f:e7:27:0a:99:3b:
         d1:a6:b6:d5:ab:9d:ac:db:6a:e8:ce:65:3b:e6:7f:c1:7d:78:
         8c:39:9b:02:ca:f9:91:1f:ad:ac:8a:dc:8c:e1:78:82:1d:8b:
         23:6d:8e:66:eb:86:35:54:fb:d3:95:b6:af:85:c8:27:4d:89:
         46:22:1f:d8:08:bf:cd:a4:10:4a:90:1a:9a:97:c9:d7:d9:5c:
         35:9c:21:49:54:7a:7b:73:06:f6:90:f6:3a:68:89:7d:20:92:
         7a:8e:39:ea:51:9d:df:90:f4:a8:ae:74:02:c1:f8:45:1f:97:
         b8:98:63:04:f1:4b:29:12:09:32:da:ca:bd:50:04:de:bc:67:
         2e:d9:fb:e8:62:ef:87:07:d6:0f:8c:1c:bd:2c:43:3b:6d:fd:
         31:4b:07:e2:99:45:f1:25:b5:7e:f6:b5:78:84:3b:e5:37:0e:
         a5:3a:b1:33:9f:4b:0a:25:03:0e:73:4c:ac:c7:d2:40:e8:4e:
         b0:94:50:6a:40:cb:76:12:4d:59:2c:b7:7a:b9:55:c6:a4:70:
         7b:c6:fd:f0:dd:94:1c:c7:81:01:13:5c:88:29:36:6f:57:ae:
         de:e7:80:b4:01:d6:bd:c0:ae:45:4c:1e:14:9d:12:35:0e:6e:
         00:92:8a:66
-----BEGIN CERTIFICATE-----
MIICYjCCAUqgAwIBAgIJANQm7LrbpGFVMA0GCSqGSIb3DQEBCwUAMB0xGzAZBgNV
BAsMElBsYXljZUt1YmUgUk9PVCBDQTAeFw0yMjAxMTIwNDI0NTFaFw0zMjAxMTAw
NDI0NTFaMCcxCzAJBgNVBAYTAktSMRgwFgYDVQQDDA9saW5rZXJkMi1pc3N1ZXIw
WTATBgcqhkjOPQIBBggqhkjOPQMBBwNCAATvqxfxG1qKE0nMqn05MNEbYrKsafyR
NzlUq+iRGfBRAWgI1IBj8zn7gzl5RNpU6mnWZLcDXuQKt2u5YwLATamOo2YwZDAd
BgNVHQ4EFgQU787acC39rMALMvdyqQViG9QJmE0wHwYDVR0jBBgwFoAUQMpMf4ks
QRw+1DZcdnMR67Yojp4wEgYDVR0TAQH/BAgwBgEB/wIBADAOBgNVHQ8BAf8EBAMC
AYYwDQYJKoZIhvcNAQELBQADggEBAJK3myuhh1jppeKZEg/nJwqZO9GmttWrnazb
aujOZTvmf8F9eIw5mwLK+ZEfrayK3IzheIIdiyNtjmbrhjVU+9OVtq+FyCdNiUYi
H9gIv82kEEqQGpqXydfZXDWcIUlUentzBvaQ9jpoiX0gknqOOepRnd+Q9KiudALB
+EUfl7iYYwTxSykSCTLayr1QBN68Zy7Z++hi74cH1g+MHL0sQztt/TFLB+KZRfEl
tX72tXiEO+U3DqU6sTOfSwolAw5zTKzH0kDoTrCUUGpAy3YSTVkst3q5VcakcHvG
/fDdlBzHgQETXIgpNm9Xrt7ngLQB1r3ArkVMHhSdEjUObgCSimY=
-----END CERTIFICATE-----
